target datalayout = "e-m:e-p270:32:32-p271:32:32-p272:64:64-i64:64-i128:128-f80:128-n8:16:32:64-S128"
target triple = "x86_64-pc-linux-gnu"

%struct.SDL_HIDAPI_Device = type { ptr, ptr, ptr, ptr, i16, i16, i16, ptr, %struct.SDL_GUID, i32, i32, i32, i32, i16, i16, i8, i32, i32, i32, ptr, ptr, ptr, ptr, %struct.SDL_AtomicInt, i32, ptr, i8, i8, i8, ptr, i32, ptr, ptr }
%struct.SDL_GUID = type { [16 x i8] }
%struct.SDL_AtomicInt = type { i32 }
%struct.SDL_DriverPS5_Context = type { ptr, ptr, i8, i8, i8, i8, i8, i8, i8, i8, i32, i8, i8, i8, i8, i8, i8, i8, [6 x %struct.IMUCalibrationData], i16, i64, i32, i8, i8, i8, i8, i8, i8, i8, i32, i64, i32, %union.anon }
%struct.IMUCalibrationData = type { i16, float }
%union.anon = type { [64 x i8] }

@.str.5 = private unnamed_addr constant [32 x i8] c"That operation is not supported\00", align 1

; Function Attrs: nounwind uwtable
define internal zeroext i1 @HIDAPI_DriverPS5_SetJoystickLED(ptr noundef %0, ptr noundef %1, i8 noundef zeroext %2, i8 noundef zeroext %3, i8 noundef zeroext %4) #0 {
  %6 = alloca i1, align 1
  %7 = alloca ptr, align 8
  %8 = alloca ptr, align 8
  %9 = alloca i8, align 1
  %10 = alloca i8, align 1
  %11 = alloca i8, align 1
  %12 = alloca ptr, align 8
  %13 = alloca i32, align 4
  store ptr %0, ptr %7, align 8
  store ptr %1, ptr %8, align 8
  store i8 %2, ptr %9, align 1
  store i8 %3, ptr %10, align 1
  store i8 %4, ptr %11, align 1
  call void @llvm.lifetime.start.p0(i64 8, ptr %12) #6
  %14 = load ptr, ptr %7, align 8
  %15 = getelementptr inbounds nuw %struct.SDL_HIDAPI_Device, ptr %14, i32 0, i32 20
  %16 = load ptr, ptr %15, align 8
  store ptr %16, ptr %12, align 8
  %17 = load ptr, ptr %12, align 8
  %18 = getelementptr inbounds nuw %struct.SDL_DriverPS5_Context, ptr %17, i32 0, i32 5
  %19 = load i8, ptr %18, align 1, !range !5, !noundef !6
  %20 = trunc i8 %19 to i1
  br i1 %20, label %23, label %21

21:                                               ; preds = %5
  %22 = call zeroext i1 (ptr, ...) @SDL_SetError_REAL(ptr noundef @.str.5)
  store i1 %22, ptr %6, align 1
  store i32 1, ptr %13, align 4
  br label %37

23:                                               ; preds = %5
  %24 = load ptr, ptr %12, align 8
  %25 = getelementptr inbounds nuw %struct.SDL_DriverPS5_Context, ptr %24, i32 0, i32 25
  store i8 1, ptr %25, align 1
  %26 = load i8, ptr %9, align 1
  %27 = load ptr, ptr %12, align 8
  %28 = getelementptr inbounds nuw %struct.SDL_DriverPS5_Context, ptr %27, i32 0, i32 26
  store i8 %26, ptr %28, align 8
  %29 = load i8, ptr %10, align 1
  %30 = load ptr, ptr %12, align 8
  %31 = getelementptr inbounds nuw %struct.SDL_DriverPS5_Context, ptr %30, i32 0, i32 27
  store i8 %29, ptr %31, align 1
  %32 = load i8, ptr %11, align 1
  %33 = load ptr, ptr %12, align 8
  %34 = getelementptr inbounds nuw %struct.SDL_DriverPS5_Context, ptr %33, i32 0, i32 28
  store i8 %32, ptr %34, align 2
  %35 = load ptr, ptr %12, align 8
  %36 = call zeroext i1 @HIDAPI_DriverPS5_UpdateEffects(ptr noundef %35, i32 noundef 8, i1 noundef zeroext true)
  store i1 %36, ptr %6, align 1
  store i32 1, ptr %13, align 4
  br label %37

37:                                               ; preds = %23, %21
  call void @llvm.lifetime.end.p0(i64 8, ptr %12) #6
  %38 = load i1, ptr %6, align 1
  ret i1 %38
}