; Function Attrs: nounwind uwtable
define internal zeroext i1 @HIDAPI_DriverPS5_SetJoystickLED(ptr noundef readonly captures(none) %0, ptr readnone captures(none) %1, i8 noundef zeroext %2, i8 noundef zeroext %3, i8 noundef zeroext %4) #0 {
  %6 = getelementptr inbounds nuw i8, ptr %0, i64 112
  %7 = load ptr, ptr %6, align 8
  %8 = getelementptr inbounds nuw i8, ptr %7, i64 19
  %9 = load i8, ptr %8, align 1, !range !5, !noundef !6
  %10 = trunc nuw i8 %9 to i1
  br i1 %10, label %13, label %11

11:                                               ; preds = %5
  %12 = tail call zeroext i1 (ptr, ...) @SDL_SetError_REAL(ptr noundef nonnull @.str.5) #9
  br label %19

13:                                               ; preds = %5
  %14 = getelementptr inbounds nuw i8, ptr %7, i64 103
  store i8 1, ptr %14, align 1
  %15 = getelementptr inbounds nuw i8, ptr %7, i64 104
  store i8 %2, ptr %15, align 8
  %16 = getelementptr inbounds nuw i8, ptr %7, i64 105
  store i8 %3, ptr %16, align 1
  %17 = getelementptr inbounds nuw i8, ptr %7, i64 106
  store i8 %4, ptr %17, align 2
  %18 = tail call fastcc zeroext i1 @HIDAPI_DriverPS5_UpdateEffects(ptr noundef nonnull %7, i32 noundef 8, i1 noundef zeroext true)
  br label %19

19:                                               ; preds = %13, %11
  %.0 = phi i1 [ %18, %13 ], [ %12, %11 ]
  ret i1 %.0
}